target datalayout = "e-m:e-p270:32:32-p271:32:32-p272:64:64-i64:64-i128:128-f80:128-n8:16:32:64-S128"
target triple = "x86_64-pc-linux-gnu"

%struct._icmpv6stat_t = type { ptr, ptr, i32, i32, i32, i32, double, double, double }
%struct._GString = type { ptr, i64, i64 }

@.str.2 = private unnamed_addr constant [12 x i8] c"icmpv6,srt,\00", align 1
@.str.3 = private unnamed_addr constant [48 x i8] c"Couldn't register icmpv6,srt tap: Out of memory\00", align 1
@.str.4 = private unnamed_addr constant [7 x i8] c"icmpv6\00", align 1
@.str.5 = private unnamed_addr constant [37 x i8] c"Couldn't register icmpv6,srt tap: %s\00", align 1

; Function Attrs: alwaysinline nounwind
define internal ptr @memset.inline(ptr %0, i32 %1, i64 %2) #6 {
  %4 = alloca ptr, align 8
  %5 = alloca i32, align 4
  %6 = alloca i64, align 8
  store ptr %0, ptr %4, align 8
  store i32 %1, ptr %5, align 4
  store i64 %2, ptr %6, align 8
  %7 = load ptr, ptr %4, align 8
  %8 = load i32, ptr %5, align 4
  %9 = load i64, ptr %6, align 8
  %10 = load ptr, ptr %4, align 8
  %11 = call i64 @llvm.objectsize.i64.p0(ptr %10, i1 false, i1 true, i1 true)
  %12 = call ptr @__memset_chk(ptr noundef %7, i32 noundef %8, i64 noundef %9, i64 noundef %11) #12
  ret ptr %12
}

; Function Attrs: null_pointer_is_valid sspstrong uwtable
define internal void @icmpv6stat_init(ptr noundef %0, ptr noundef %1) #0 {
  %3 = alloca ptr, align 8
  %4 = alloca ptr, align 8
  %5 = alloca ptr, align 8
  %6 = alloca ptr, align 8
  %7 = alloca ptr, align 8
  store ptr %0, ptr %3, align 8
  store ptr %1, ptr %4, align 8
  call void @llvm.lifetime.start.p0(i64 8, ptr %5) #12
  call void @llvm.lifetime.start.p0(i64 8, ptr %6) #12
  store ptr null, ptr %6, align 8
  call void @llvm.lifetime.start.p0(i64 8, ptr %7) #12
  %8 = load ptr, ptr %3, align 8
  %9 = call ptr @strstr(ptr noundef %8, ptr noundef @.str.2) #13
  %10 = icmp ne ptr %9, null
  br i1 %10, label %11, label %14

11:                                               ; preds = %2
  %12 = load ptr, ptr %3, align 8
  %13 = getelementptr i8, ptr %12, i64 11
  store ptr %13, ptr %6, align 8
  br label %14

14:                                               ; preds = %11, %2
  %15 = call noalias ptr @g_try_malloc(i64 noundef 56) #14
  store ptr %15, ptr %5, align 8
  %16 = load ptr, ptr %5, align 8
  %17 = icmp eq ptr %16, null
  br i1 %17, label %18, label %19

18:                                               ; preds = %14
  call void (ptr, ...) @cmdarg_err(ptr noundef @.str.3)
  call void @exit(i32 noundef 1) #15
  unreachable

19:                                               ; preds = %14
  %20 = load ptr, ptr %5, align 8
  %21 = call ptr @memset.inline(ptr noundef %20, i32 noundef 0, i64 noundef 56) #12
  %22 = load ptr, ptr %5, align 8
  %23 = getelementptr inbounds nuw %struct._icmpv6stat_t, ptr %22, i32 0, i32 6
  store double 0x41EFFFFFFFE00000, ptr %23, align 8
  %24 = load ptr, ptr %6, align 8
  %25 = call noalias ptr @g_strdup(ptr noundef %24)
  %26 = load ptr, ptr %5, align 8
  %27 = getelementptr inbounds nuw %struct._icmpv6stat_t, ptr %26, i32 0, i32 0
  store ptr %25, ptr %27, align 8
  %28 = load ptr, ptr %5, align 8
  %29 = load ptr, ptr %5, align 8
  %30 = getelementptr inbounds nuw %struct._icmpv6stat_t, ptr %29, i32 0, i32 0
  %31 = load ptr, ptr %30, align 8
  %32 = call ptr @register_tap_listener(ptr noundef @.str.4, ptr noundef %28, ptr noundef %31, i32 noundef 0, ptr noundef @icmpv6stat_reset, ptr noundef @icmpv6stat_packet, ptr noundef @icmpv6stat_draw, ptr noundef null)
  store ptr %32, ptr %7, align 8
  %33 = load ptr, ptr %7, align 8
  %34 = icmp ne ptr %33, null
  br i1 %34, label %35, label %45

35:                                               ; preds = %19
  %36 = load ptr, ptr %5, align 8
  %37 = getelementptr inbounds nuw %struct._icmpv6stat_t, ptr %36, i32 0, i32 0
  %38 = load ptr, ptr %37, align 8
  call void @g_free(ptr noundef %38)
  %39 = load ptr, ptr %5, align 8
  call void @g_free(ptr noundef %39)
  %40 = load ptr, ptr %7, align 8
  %41 = getelementptr inbounds nuw %struct._GString, ptr %40, i32 0, i32 0
  %42 = load ptr, ptr %41, align 8
  call void (ptr, ...) @cmdarg_err(ptr noundef @.str.5, ptr noundef %42)
  %43 = load ptr, ptr %7, align 8
  %44 = call ptr @g_string_free(ptr noundef %43, i32 noundef 1)
  call void @exit(i32 noundef 1) #15
  unreachable

45:                                               ; preds = %19
  call void @llvm.lifetime.end.p0(i64 8, ptr %7) #12
  call void @llvm.lifetime.end.p0(i64 8, ptr %6) #12
  call void @llvm.lifetime.end.p0(i64 8, ptr %5) #12
  ret void
}