; Function Attrs: null_pointer_is_valid sspstrong uwtable
define internal void @icmpv6stat_init(ptr noundef %0, ptr readnone captures(none) %1) #0 {
  %3 = tail call ptr @strstr(ptr noundef %0, ptr noundef nonnull dereferenceable(1) @.str.2) #9
  %4 = tail call noalias dereferenceable_or_null(56) ptr @g_try_malloc(i64 noundef 56) #10
  %5 = icmp eq ptr %4, null
  br i1 %5, label %6, label %7

6:                                                ; preds = %2
  tail call void (ptr, ...) @cmdarg_err(ptr noundef nonnull @.str.3)
  tail call void @exit(i32 noundef 1) #11
  unreachable

7:                                                ; preds = %2
  %.not = icmp eq ptr %3, null
  %8 = getelementptr i8, ptr %0, i64 11
  %spec.select = select i1 %.not, ptr null, ptr %8
  tail call void @llvm.memset.p0.i64(ptr noundef nonnull align 1 dereferenceable(56) %4, i8 noundef 0, i64 noundef 56, i1 noundef false) #12
  %9 = getelementptr inbounds nuw i8, ptr %4, i64 32
  store double 0x41EFFFFFFFE00000, ptr %9, align 8
  %10 = tail call noalias ptr @g_strdup(ptr noundef %spec.select)
  store ptr %10, ptr %4, align 8
  %11 = tail call ptr @register_tap_listener(ptr noundef nonnull @.str.4, ptr noundef nonnull %4, ptr noundef %10, i32 noundef 0, ptr noundef nonnull @icmpv6stat_reset, ptr noundef nonnull @icmpv6stat_packet, ptr noundef nonnull @icmpv6stat_draw, ptr noundef null)
  %.not16 = icmp eq ptr %11, null
  br i1 %.not16, label %16, label %12

12:                                               ; preds = %7
  %13 = load ptr, ptr %4, align 8
  tail call void @g_free(ptr noundef %13)
  tail call void @g_free(ptr noundef nonnull %4)
  %14 = load ptr, ptr %11, align 8
  tail call void (ptr, ...) @cmdarg_err(ptr noundef nonnull @.str.5, ptr noundef %14)
  %15 = tail call ptr @g_string_free(ptr noundef nonnull %11, i32 noundef 1)
  tail call void @exit(i32 noundef 1) #11
  unreachable

16:                                               ; preds = %7
  ret void
}